target datalayout = "e-m:e-p270:32:32-p271:32:32-p272:64:64-i64:64-i128:128-f80:128-n8:16:32:64-S128"
target triple = "x86_64-unknown-linux-gnu"

module asm ".section \22.export_symbol\22,\22a\22 ; __export_symbol_blk_mq_pci_map_queues: ; .asciz \22GPL\22 ; .asciz \22\22 ; .balign 8 ; .quad blk_mq_pci_map_queues ; .previous"

%struct.cpumask = type { [1 x i64] }

@.str = private unnamed_addr constant [19 x i8] c"block/blk-mq-pci.c\00", align 1
@__UNIQUE_ID___addressable_blk_mq_pci_map_queues430 = internal global ptr @blk_mq_pci_map_queues, section ".discard.addressable", align 8
@__cpu_possible_mask = external dso_local local_unnamed_addr global %struct.cpumask, align 8
@llvm.compiler.used = appending global [1 x ptr] [ptr @__UNIQUE_ID___addressable_blk_mq_pci_map_queues430], section "llvm.metadata"

; Function Attrs: fn_ret_thunk_extern nounwind null_pointer_is_valid
define dso_local void @blk_mq_pci_map_queues(ptr nocapture noundef readonly %0, ptr noundef %1, i32 noundef %2) #0 align 16 {
  %4 = getelementptr inbounds i8, ptr %0, i64 8
  %5 = load i32, ptr %4, align 8
  %6 = icmp eq i32 %5, 0
  br i1 %6, label %66, label %7

7:                                                ; preds = %3
  %8 = getelementptr inbounds i8, ptr %0, i64 12
  br label %9

9:                                                ; preds = %36, %7
  %10 = phi i32 [ 0, %7 ], [ %37, %36 ]
  %11 = add i32 %10, %2
  %12 = tail call ptr @pci_irq_get_affinity(ptr noundef %1, i32 noundef %11) #2
  %13 = icmp eq ptr %12, null
  br i1 %13, label %40, label %14

14:                                               ; preds = %29, %9
  %15 = phi i64 [ %35, %29 ], [ 0, %9 ]
  %16 = and i64 %15, 4294967295
  %17 = icmp ugt i64 %16, 63
  br i1 %17, label %25, label %18, !prof !5

18:                                               ; preds = %14
  %19 = load i64, ptr %12, align 8
  %20 = shl nsw i64 -1, %16
  %21 = and i64 %19, %20
  %22 = icmp eq i64 %21, 0
  br i1 %22, label %25, label %23

23:                                               ; preds = %18
  %24 = tail call i64 asm "rep; bsf $1,$0", "=r,rm,~{dirflag},~{fpsr},~{flags}"(i64 %21) #3, !srcloc !6
  br label %25

25:                                               ; preds = %23, %18, %14
  %26 = phi i64 [ 64, %14 ], [ %24, %23 ], [ 64, %18 ]
  %27 = and i64 %26, 4294967232
  %28 = icmp eq i64 %27, 0
  br i1 %28, label %29, label %36

29:                                               ; preds = %25
  %30 = load i32, ptr %8, align 4
  %31 = add i32 %30, %10
  %32 = load ptr, ptr %0, align 8
  %33 = and i64 %26, 63
  %34 = getelementptr i32, ptr %32, i64 %33
  store i32 %31, ptr %34, align 4
  %35 = add nuw nsw i64 %26, 1
  br label %14, !llvm.loop !7

36:                                               ; preds = %25
  %37 = add nuw i32 %10, 1
  %38 = load i32, ptr %4, align 8
  %39 = icmp ult i32 %37, %38
  br i1 %39, label %9, label %66, !llvm.loop !10

40:                                               ; preds = %9
  %41 = getelementptr inbounds i8, ptr %0, i64 8
  %42 = load i32, ptr %41, align 8
  %43 = icmp ugt i32 %42, 1
  br i1 %43, label %44, label %45, !prof !5

44:                                               ; preds = %40
  tail call void asm sideeffect "428: nop\0A\09.pushsection .discard.instr_begin\0A\09.long 428b - .\0A\09.popsection\0A\09", "i,~{dirflag},~{fpsr},~{flags}"(i32 428) #2, !srcloc !11
  tail call void asm sideeffect "1:\09.byte 0x0f, 0x0b\0A.pushsection __bug_table,\22aw\22\0A2:\09.long 1b - .\09# bug_entry::bug_addr\0A\09.long ${0:c} - .\09# bug_entry::file\0A\09.word ${1:c}\09# bug_entry::line\0A\09.word ${2:c}\09# bug_entry::flags\0A\09.org 2b+${3:c}\0A.popsection\0A998:\0A\09.pushsection .discard.reachable\0A\09.long 998b\0A\09.popsection\0A\09", "i,i,i,i,~{dirflag},~{fpsr},~{flags}"(ptr nonnull @.str, i32 43, i32 2307, i64 12) #2, !srcloc !12
  tail call void asm sideeffect "429: nop\0A\09.pushsection .discard.instr_end\0A\09.long 429b - .\0A\09.popsection\0A\09", "i,~{dirflag},~{fpsr},~{flags}"(i32 429) #2, !srcloc !13
  br label %45

45:                                               ; preds = %44, %40
  br label %46

46:                                               ; preds = %61, %45
  %47 = phi i64 [ %65, %61 ], [ 0, %45 ]
  %48 = and i64 %47, 4294967295
  %49 = icmp ugt i64 %48, 63
  br i1 %49, label %57, label %50, !prof !5

50:                                               ; preds = %46
  %51 = load i64, ptr @__cpu_possible_mask, align 8
  %52 = shl nsw i64 -1, %48
  %53 = and i64 %51, %52
  %54 = icmp eq i64 %53, 0
  br i1 %54, label %57, label %55

55:                                               ; preds = %50
  %56 = tail call i64 asm "rep; bsf $1,$0", "=r,rm,~{dirflag},~{fpsr},~{flags}"(i64 %53) #3, !srcloc !6
  br label %57

57:                                               ; preds = %55, %50, %46
  %58 = phi i64 [ 64, %46 ], [ %56, %55 ], [ 64, %50 ]
  %59 = and i64 %58, 4294967232
  %60 = icmp eq i64 %59, 0
  br i1 %60, label %61, label %66

61:                                               ; preds = %57
  %62 = load ptr, ptr %0, align 8
  %63 = and i64 %58, 63
  %64 = getelementptr i32, ptr %62, i64 %63
  store i32 0, ptr %64, align 4
  %65 = add nuw nsw i64 %58, 1
  br label %46, !llvm.loop !14

66:                                               ; preds = %57, %36, %3
  ret void
}

; Function Attrs: null_pointer_is_valid
declare dso_local ptr @pci_irq_get_affinity(ptr noundef, i32 noundef) local_unnamed_addr #1


!llvm.module.flags = !{!0, !1, !2, !3, !4}

!0 = !{i32 1, !"wchar_size", i32 2}
!1 = !{i32 8, !"cf-protection-branch", i32 1}
!2 = !{i32 4, !"function_return_thunk_extern", i32 1}
!3 = !{i32 4, !"indirect_branch_cs_prefix", i32 1}
!4 = !{i32 4, !"SkipRaxSetup", i32 1}
!5 = !{!"branch_weights", i32 1, i32 2000}
!6 = !{i64 643513}
!7 = distinct !{!7, !8, !9}
!8 = !{!"llvm.loop.mustprogress"}
!9 = !{!"llvm.loop.unroll.disable"}
!10 = distinct !{!10, !8, !9}
!11 = !{i64 2156572359, i64 2156572168, i64 2156572220, i64 2156572266, i64 2156572294}
!12 = !{i64 2156572433, i64 2156572462, i64 2156572508, i64 2156572566, i64 2156572620, i64 2156572674, i64 2156572729, i64 2156572760, i64 2156573068, i64 2156573074, i64 2156573121, i64 2156573144, i64 2156573170}
!13 = !{i64 2156573620, i64 2156573431, i64 2156573481, i64 2156573527, i64 2156573555}
!14 = distinct !{!14, !8, !9}
